target datalayout = "e-m:e-p270:32:32-p271:32:32-p272:64:64-i64:64-i128:128-f80:128-n8:16:32:64-S128"
target triple = "x86_64-pc-linux-gnu"

%struct.bloom_filter = type { i32, i64, i64, [0 x i8] }

@pg_number_of_ones = external constant [256 x i8], align 16
@pg_popcount_optimized = external global ptr, align 8

; Function Attrs: inlinehint nounwind uwtable
define internal i64 @pg_popcount(ptr noundef %0, i32 noundef %1) #3 {
  %3 = alloca i64, align 8
  %4 = alloca ptr, align 8
  %5 = alloca i32, align 4
  %6 = alloca i32, align 4
  %7 = alloca i64, align 8
  %8 = alloca i32, align 4
  store ptr %0, ptr %4, align 8
  store i32 %1, ptr %5, align 4
  call void @llvm.lifetime.start.p0(i64 4, ptr %6) #6
  store i32 8, ptr %6, align 4
  %9 = load i32, ptr %5, align 4
  %10 = load i32, ptr %6, align 4
  %11 = icmp slt i32 %9, %10
  br i1 %11, label %12, label %29

12:                                               ; preds = %2
  call void @llvm.lifetime.start.p0(i64 8, ptr %7) #6
  store i64 0, ptr %7, align 8
  br label %13

13:                                               ; preds = %17, %12
  %14 = load i32, ptr %5, align 4
  %15 = add i32 %14, -1
  store i32 %15, ptr %5, align 4
  %16 = icmp ne i32 %14, 0
  br i1 %16, label %17, label %27

17:                                               ; preds = %13
  %18 = load ptr, ptr %4, align 8
  %19 = getelementptr inbounds nuw i8, ptr %18, i32 1
  store ptr %19, ptr %4, align 8
  %20 = load i8, ptr %18, align 1
  %21 = zext i8 %20 to i64
  %22 = getelementptr inbounds nuw [256 x i8], ptr @pg_number_of_ones, i64 0, i64 %21
  %23 = load i8, ptr %22, align 1
  %24 = zext i8 %23 to i64
  %25 = load i64, ptr %7, align 8
  %26 = add i64 %25, %24
  store i64 %26, ptr %7, align 8
  br label %13, !llvm.loop !9

27:                                               ; preds = %13
  %28 = load i64, ptr %7, align 8
  store i64 %28, ptr %3, align 8
  store i32 1, ptr %8, align 4
  call void @llvm.lifetime.end.p0(i64 8, ptr %7) #6
  br label %34

29:                                               ; preds = %2
  %30 = load ptr, ptr @pg_popcount_optimized, align 8
  %31 = load ptr, ptr %4, align 8
  %32 = load i32, ptr %5, align 4
  %33 = call i64 %30(ptr noundef %31, i32 noundef %32)
  store i64 %33, ptr %3, align 8
  store i32 1, ptr %8, align 4
  br label %34

34:                                               ; preds = %29, %27
  call void @llvm.lifetime.end.p0(i64 4, ptr %6) #6
  %35 = load i64, ptr %3, align 8
  ret i64 %35
}

; Function Attrs: nounwind uwtable
define dso_local double @bloom_prop_bits_set(ptr noundef %0) #0 {
  %2 = alloca ptr, align 8
  %3 = alloca i32, align 4
  %4 = alloca i64, align 8
  store ptr %0, ptr %2, align 8
  call void @llvm.lifetime.start.p0(i64 4, ptr %3) #6
  %5 = load ptr, ptr %2, align 8
  %6 = getelementptr inbounds nuw %struct.bloom_filter, ptr %5, i32 0, i32 2
  %7 = load i64, ptr %6, align 8
  %8 = udiv i64 %7, 8
  %9 = trunc i64 %8 to i32
  store i32 %9, ptr %3, align 4
  call void @llvm.lifetime.start.p0(i64 8, ptr %4) #6
  %10 = load ptr, ptr %2, align 8
  %11 = getelementptr inbounds nuw %struct.bloom_filter, ptr %10, i32 0, i32 3
  %12 = getelementptr inbounds [0 x i8], ptr %11, i64 0, i64 0
  %13 = load i32, ptr %3, align 4
  %14 = call i64 @pg_popcount(ptr noundef %12, i32 noundef %13)
  store i64 %14, ptr %4, align 8
  %15 = load i64, ptr %4, align 8
  %16 = uitofp i64 %15 to double
  %17 = load ptr, ptr %2, align 8
  %18 = getelementptr inbounds nuw %struct.bloom_filter, ptr %17, i32 0, i32 2
  %19 = load i64, ptr %18, align 8
  %20 = uitofp i64 %19 to double
  %21 = fdiv double %16, %20
  call void @llvm.lifetime.end.p0(i64 8, ptr %4) #6
  call void @llvm.lifetime.end.p0(i64 4, ptr %3) #6
  ret double %21
}