; Function Attrs: nounwind uwtable
define dso_local double @bloom_prop_bits_set(ptr noundef %0) local_unnamed_addr #0 {
  %2 = getelementptr inbounds nuw i8, ptr %0, i64 16
  %3 = load i64, ptr %2, align 8
  %4 = lshr i64 %3, 3
  %5 = trunc i64 %4 to i32
  %6 = getelementptr inbounds nuw i8, ptr %0, i64 24
  %7 = icmp slt i32 %5, 8
  br i1 %7, label %.preheader.i, label %16

.preheader.i:                                     ; preds = %1
  %.not12.i = icmp eq i32 %5, 0
  br i1 %.not12.i, label %pg_popcount.exit, label %.lr.ph.i

.lr.ph.i:                                         ; preds = %.preheader.i, %.lr.ph.i
  %.015.i = phi i64 [ %15, %.lr.ph.i ], [ 0, %.preheader.i ]
  %.0914.i = phi i32 [ %8, %.lr.ph.i ], [ %5, %.preheader.i ]
  %.01013.i = phi ptr [ %9, %.lr.ph.i ], [ %6, %.preheader.i ]
  %8 = add i32 %.0914.i, -1
  %9 = getelementptr inbounds nuw i8, ptr %.01013.i, i64 1
  %10 = load i8, ptr %.01013.i, align 1
  %11 = zext i8 %10 to i64
  %12 = getelementptr inbounds nuw [256 x i8], ptr @pg_number_of_ones, i64 0, i64 %11
  %13 = load i8, ptr %12, align 1
  %14 = zext i8 %13 to i64
  %15 = add i64 %.015.i, %14
  %.not.i = icmp eq i32 %8, 0
  br i1 %.not.i, label %pg_popcount.exit, label %.lr.ph.i, !llvm.loop !9

16:                                               ; preds = %1
  %17 = load ptr, ptr @pg_popcount_optimized, align 8
  %18 = tail call i64 %17(ptr noundef nonnull %6, i32 noundef %5) #5
  %.pre = load i64, ptr %2, align 8
  br label %pg_popcount.exit

pg_popcount.exit:                                 ; preds = %.lr.ph.i, %.preheader.i, %16
  %19 = phi i64 [ %.pre, %16 ], [ %3, %.preheader.i ], [ %3, %.lr.ph.i ]
  %.08.i = phi i64 [ %18, %16 ], [ 0, %.preheader.i ], [ %15, %.lr.ph.i ]
  %20 = uitofp i64 %.08.i to double
  %21 = uitofp i64 %19 to double
  %22 = fdiv double %20, %21
  ret double %22
}